; Function Attrs: mustprogress uwtable
define void @_ZN2cv7quality11QualitySSIM7computeERKNS_11_InputArrayE(ptr dead_on_unwind noalias writable writeonly sret(%"class.cv::Scalar_") align 8 captures(none) %0, ptr noundef nonnull align 8 dereferenceable(488) %1, ptr noundef nonnull align 8 dereferenceable(24) %2) unnamed_addr #0 align 2 personality ptr @__gxx_personality_v0 {
  %4 = alloca %"struct.std::pair", align 8
  %5 = alloca %"struct.cv::quality::QualitySSIM::_mat_data", align 8
  %6 = alloca %"class.cv::_OutputArray", align 8
  call void @llvm.lifetime.start.p0(i64 112, ptr nonnull %4) #17
  %7 = getelementptr inbounds nuw i8, ptr %1, i64 88
  call void @llvm.lifetime.start.p0(i64 400, ptr nonnull %5) #17
  call void @_ZN2cv7quality11QualitySSIM9_mat_dataC1ERKNS_11_InputArrayE(ptr noundef nonnull align 8 dereferenceable(400) %5, ptr noundef nonnull align 8 dereferenceable(24) %2)
  invoke void @_ZN2cv7quality11QualitySSIM9_mat_data7computeERKS2_S4_(ptr dead_on_unwind nonnull writable sret(%"struct.std::pair") align 8 %4, ptr noundef nonnull align 8 dereferenceable(400) %7, ptr noundef nonnull align 8 dereferenceable(400) %5)
          to label %8 unwind label %17

8:                                                ; preds = %3
  %9 = getelementptr inbounds nuw i8, ptr %5, i64 320
  call void @_ZN2cv4UMatD1Ev(ptr noundef nonnull align 8 dereferenceable(80) %9) #17
  %10 = getelementptr inbounds nuw i8, ptr %5, i64 240
  call void @_ZN2cv4UMatD1Ev(ptr noundef nonnull align 8 dereferenceable(80) %10) #17
  %11 = getelementptr inbounds nuw i8, ptr %5, i64 160
  call void @_ZN2cv4UMatD1Ev(ptr noundef nonnull align 8 dereferenceable(80) %11) #17
  %12 = getelementptr inbounds nuw i8, ptr %5, i64 80
  call void @_ZN2cv4UMatD1Ev(ptr noundef nonnull align 8 dereferenceable(80) %12) #17
  call void @_ZN2cv4UMatD1Ev(ptr noundef nonnull align 8 dereferenceable(400) %5) #17
  call void @llvm.lifetime.end.p0(i64 400, ptr nonnull %5) #17
  call void @llvm.lifetime.start.p0(i64 24, ptr nonnull %6) #17
  %13 = getelementptr inbounds nuw i8, ptr %1, i64 8
  %14 = getelementptr inbounds nuw i8, ptr %6, i64 8
  %15 = getelementptr inbounds nuw i8, ptr %6, i64 16
  store i64 0, ptr %15, align 8
  store i32 34209792, ptr %6, align 8, !tbaa !9
  store ptr %13, ptr %14, align 8, !tbaa !12
  %16 = getelementptr inbounds nuw i8, ptr %4, i64 32
  invoke void @_ZNK2cv12_OutputArray6assignERKNS_4UMatE(ptr noundef nonnull align 8 dereferenceable(24) %6, ptr noundef nonnull align 8 dereferenceable(80) %16)
          to label %_ZN2cv7Scalar_IdEC2ERKS1_.exit unwind label %19

_ZN2cv7Scalar_IdEC2ERKS1_.exit:                   ; preds = %8
  call void @llvm.lifetime.end.p0(i64 24, ptr nonnull %6) #17
  call void @llvm.memcpy.p0.p0.i64(ptr noundef nonnull align 8 dereferenceable(32) %0, ptr noundef nonnull align 8 dereferenceable(32) %4, i64 32, i1 false), !tbaa !45
  call void @_ZN2cv4UMatD1Ev(ptr noundef nonnull align 8 dereferenceable(80) %16) #17
  call void @llvm.lifetime.end.p0(i64 112, ptr nonnull %4) #17
  ret void

17:                                               ; preds = %3
  %18 = landingpad { ptr, i32 }
          cleanup
  call void @_ZN2cv7quality11QualitySSIM9_mat_dataD2Ev(ptr noundef nonnull align 8 dereferenceable(400) %5) #17
  call void @llvm.lifetime.end.p0(i64 400, ptr nonnull %5) #17
  br label %21

19:                                               ; preds = %8
  %20 = landingpad { ptr, i32 }
          cleanup
  call void @llvm.lifetime.end.p0(i64 24, ptr nonnull %6) #17
  call void @_ZN2cv4UMatD1Ev(ptr noundef nonnull align 8 dereferenceable(80) %16) #17
  br label %21

21:                                               ; preds = %19, %17
  %.pn7.pn = phi { ptr, i32 } [ %20, %19 ], [ %18, %17 ]
  call void @llvm.lifetime.end.p0(i64 112, ptr nonnull %4) #17
  resume { ptr, i32 } %.pn7.pn
}